; Function Attrs: mustprogress uwtable
define hidden noundef zeroext i1 @_ZNK3sat17integrity_checker13check_clausesEv(ptr nocapture noundef nonnull readonly align 8 dereferenceable(8) %this) local_unnamed_addr #4 align 2 {
entry:
  %0 = load ptr, ptr %this, align 8
  %m_clauses.i = getelementptr inbounds i8, ptr %0, i64 3376
  %1 = load ptr, ptr %m_clauses.i, align 8
  %cmp.i.i.i = icmp eq ptr %1, null
  br i1 %cmp.i.i.i, label %_ZNK3sat17integrity_checker13check_clausesEPKPNS_6clauseES4_.exit, label %_ZNK3sat6solver11end_clausesEv.exit

_ZNK3sat6solver11end_clausesEv.exit:              ; preds = %entry
  %arrayidx.i.i.i = getelementptr inbounds i8, ptr %1, i64 -4
  %2 = load i32, ptr %arrayidx.i.i.i, align 4
  %3 = zext i32 %2 to i64
  %add.ptr.i.i = getelementptr inbounds ptr, ptr %1, i64 %3
  %cmp.not3.i = icmp eq i32 %2, 0
  br i1 %cmp.not3.i, label %_ZNK3sat17integrity_checker13check_clausesEPKPNS_6clauseES4_.exit, label %for.body.i

for.body.i:                                       ; preds = %_ZNK3sat6solver11end_clausesEv.exit, %for.body.i
  %it.04.i = phi ptr [ %incdec.ptr.i, %for.body.i ], [ %1, %_ZNK3sat6solver11end_clausesEv.exit ]
  %4 = load ptr, ptr %it.04.i, align 8
  %call.i = tail call noundef zeroext i1 @_ZNK3sat17integrity_checker12check_clauseERKNS_6clauseE(ptr noundef nonnull align 8 dereferenceable(8) %this, ptr noundef nonnull align 4 dereferenceable(20) %4)
  %incdec.ptr.i = getelementptr inbounds i8, ptr %it.04.i, i64 8
  %cmp.not.i = icmp eq ptr %incdec.ptr.i, %add.ptr.i.i
  br i1 %cmp.not.i, label %_ZNK3sat17integrity_checker13check_clausesEPKPNS_6clauseES4_.exit, label %for.body.i, !llvm.loop !8

_ZNK3sat17integrity_checker13check_clausesEPKPNS_6clauseES4_.exit: ; preds = %for.body.i, %entry, %_ZNK3sat6solver11end_clausesEv.exit
  ret i1 true
}